target datalayout = "e-m:e-p270:32:32-p271:32:32-p272:64:64-i64:64-i128:128-f80:128-n8:16:32:64-S128"
target triple = "x86_64-pc-linux-gnu"

%struct.keyPattern = type { i32, ptr }
%struct.aclSelector = type { i32, [16 x i64], ptr, ptr, ptr, ptr }
%struct.user = type { ptr, i32, ptr, ptr, ptr }
%struct.listNode = type { ptr, ptr, ptr }
%struct.listIter = type { ptr, i32 }
%struct.aclKeyResultCache = type { i32, %struct.getKeysResult }
%struct.getKeysResult = type { i32, i32, [6 x %struct.keyReference], ptr }
%struct.keyReference = type { i32, i32 }

@.str.207 = private unnamed_addr constant [2 x i8] c"*\00", align 1

; Function Attrs: nounwind uwtable
define dso_local void @cleanupACLKeyResultCache(ptr noundef %0) #0 {
  %2 = alloca ptr, align 8
  store ptr %0, ptr %2, align 8, !tbaa !32
  %3 = load ptr, ptr %2, align 8, !tbaa !32
  %4 = getelementptr inbounds nuw %struct.aclKeyResultCache, ptr %3, i32 0, i32 0
  %5 = load i32, ptr %4, align 8, !tbaa !176
  %6 = icmp ne i32 %5, 0
  br i1 %6, label %7, label %10

7:                                                ; preds = %1
  %8 = load ptr, ptr %2, align 8, !tbaa !32
  %9 = getelementptr inbounds nuw %struct.aclKeyResultCache, ptr %8, i32 0, i32 1
  call void @getKeysFreeResult(ptr noundef %9)
  br label %10

10:                                               ; preds = %7, %1
  ret void
}

; Function Attrs: nounwind uwtable
define internal i32 @ACLSelectorHasUnrestrictedKeyAccess(ptr noundef %0, i32 noundef %1) #0 {
  %3 = alloca i32, align 4
  %4 = alloca ptr, align 8
  %5 = alloca i32, align 4
  %6 = alloca %struct.listIter, align 8
  %7 = alloca ptr, align 8
  %8 = alloca i32, align 4
  %9 = alloca ptr, align 8
  %10 = alloca i32, align 4
  store ptr %0, ptr %4, align 8, !tbaa !32
  store i32 %1, ptr %5, align 4, !tbaa !17
  %11 = load ptr, ptr %4, align 8, !tbaa !32
  %12 = getelementptr inbounds nuw %struct.aclSelector, ptr %11, i32 0, i32 0
  %13 = load i32, ptr %12, align 8, !tbaa !64
  %14 = and i32 %13, 2
  %15 = icmp ne i32 %14, 0
  br i1 %15, label %16, label %17

16:                                               ; preds = %2
  store i32 1, ptr %3, align 4
  br label %81

17:                                               ; preds = %2
  call void @llvm.lifetime.start.p0(i64 16, ptr %6) #14
  call void @llvm.lifetime.start.p0(i64 8, ptr %7) #14
  %18 = load ptr, ptr %4, align 8, !tbaa !32
  %19 = getelementptr inbounds nuw %struct.aclSelector, ptr %18, i32 0, i32 3
  %20 = load ptr, ptr %19, align 8, !tbaa !67
  call void @listRewind(ptr noundef %20, ptr noundef %6)
  call void @llvm.lifetime.start.p0(i64 4, ptr %8) #14
  store i32 0, ptr %8, align 4, !tbaa !17
  %21 = load i32, ptr %5, align 4, !tbaa !17
  %22 = sext i32 %21 to i64
  %23 = and i64 %22, 16
  %24 = icmp ne i64 %23, 0
  br i1 %24, label %25, label %28

25:                                               ; preds = %17
  %26 = load i32, ptr %8, align 4, !tbaa !17
  %27 = or i32 %26, 1
  store i32 %27, ptr %8, align 4, !tbaa !17
  br label %28

28:                                               ; preds = %25, %17
  %29 = load i32, ptr %5, align 4, !tbaa !17
  %30 = sext i32 %29 to i64
  %31 = and i64 %30, 64
  %32 = icmp ne i64 %31, 0
  br i1 %32, label %33, label %36

33:                                               ; preds = %28
  %34 = load i32, ptr %8, align 4, !tbaa !17
  %35 = or i32 %34, 2
  store i32 %35, ptr %8, align 4, !tbaa !17
  br label %36

36:                                               ; preds = %33, %28
  %37 = load i32, ptr %5, align 4, !tbaa !17
  %38 = sext i32 %37 to i64
  %39 = and i64 %38, 128
  %40 = icmp ne i64 %39, 0
  br i1 %40, label %41, label %44

41:                                               ; preds = %36
  %42 = load i32, ptr %8, align 4, !tbaa !17
  %43 = or i32 %42, 2
  store i32 %43, ptr %8, align 4, !tbaa !17
  br label %44

44:                                               ; preds = %41, %36
  %45 = load i32, ptr %5, align 4, !tbaa !17
  %46 = sext i32 %45 to i64
  %47 = and i64 %46, 32
  %48 = icmp ne i64 %47, 0
  br i1 %48, label %49, label %52

49:                                               ; preds = %44
  %50 = load i32, ptr %8, align 4, !tbaa !17
  %51 = or i32 %50, 2
  store i32 %51, ptr %8, align 4, !tbaa !17
  br label %52

52:                                               ; preds = %49, %44
  br label %53

53:                                               ; preds = %78, %76, %52
  %54 = call ptr @listNext(ptr noundef %6)
  store ptr %54, ptr %7, align 8, !tbaa !94
  %55 = icmp ne ptr %54, null
  br i1 %55, label %56, label %79

56:                                               ; preds = %53
  call void @llvm.lifetime.start.p0(i64 8, ptr %9) #14
  %57 = load ptr, ptr %7, align 8, !tbaa !94
  %58 = getelementptr inbounds nuw %struct.listNode, ptr %57, i32 0, i32 2
  %59 = load ptr, ptr %58, align 8, !tbaa !86
  store ptr %59, ptr %9, align 8, !tbaa !32
  %60 = load ptr, ptr %9, align 8, !tbaa !32
  %61 = getelementptr inbounds nuw %struct.keyPattern, ptr %60, i32 0, i32 0
  %62 = load i32, ptr %61, align 8, !tbaa !37
  %63 = load i32, ptr %8, align 4, !tbaa !17
  %64 = and i32 %62, %63
  %65 = load i32, ptr %8, align 4, !tbaa !17
  %66 = icmp ne i32 %64, %65
  br i1 %66, label %67, label %68

67:                                               ; preds = %56
  store i32 2, ptr %10, align 4
  br label %76, !llvm.loop !192

68:                                               ; preds = %56
  %69 = load ptr, ptr %9, align 8, !tbaa !32
  %70 = getelementptr inbounds nuw %struct.keyPattern, ptr %69, i32 0, i32 1
  %71 = load ptr, ptr %70, align 8, !tbaa !35
  %72 = call i32 @strcmp(ptr noundef %71, ptr noundef @.str.207) #17
  %73 = icmp ne i32 %72, 0
  br i1 %73, label %75, label %74

74:                                               ; preds = %68
  store i32 1, ptr %3, align 4
  store i32 1, ptr %10, align 4
  br label %76

75:                                               ; preds = %68
  store i32 0, ptr %10, align 4
  br label %76

76:                                               ; preds = %75, %74, %67
  call void @llvm.lifetime.end.p0(i64 8, ptr %9) #14
  %77 = load i32, ptr %10, align 4
  switch i32 %77, label %80 [
    i32 0, label %78
    i32 2, label %53
  ]

78:                                               ; preds = %76
  br label %53, !llvm.loop !192

79:                                               ; preds = %53
  store i32 0, ptr %3, align 4
  store i32 1, ptr %10, align 4
  br label %80

80:                                               ; preds = %79, %76
  call void @llvm.lifetime.end.p0(i64 4, ptr %8) #14
  call void @llvm.lifetime.end.p0(i64 8, ptr %7) #14
  call void @llvm.lifetime.end.p0(i64 16, ptr %6) #14
  br label %81

81:                                               ; preds = %80, %16
  %82 = load i32, ptr %3, align 4
  ret i32 %82
}

; Function Attrs: nounwind uwtable
define dso_local void @initACLKeyResultCache(ptr noundef %0) #0 {
  %2 = alloca ptr, align 8
  store ptr %0, ptr %2, align 8, !tbaa !32
  %3 = load ptr, ptr %2, align 8, !tbaa !32
  %4 = getelementptr inbounds nuw %struct.aclKeyResultCache, ptr %3, i32 0, i32 0
  store i32 0, ptr %4, align 8, !tbaa !176
  ret void
}

; Function Attrs: nounwind uwtable
define dso_local i32 @ACLUserCheckCmdWithUnrestrictedKeyAccess(ptr noundef %0, ptr noundef %1, ptr noundef %2, i32 noundef %3, i32 noundef %4) #0 {
  %6 = alloca i32, align 4
  %7 = alloca ptr, align 8
  %8 = alloca ptr, align 8
  %9 = alloca ptr, align 8
  %10 = alloca i32, align 4
  %11 = alloca i32, align 4
  %12 = alloca %struct.listIter, align 8
  %13 = alloca ptr, align 8
  %14 = alloca i32, align 4
  %15 = alloca i32, align 4
  %16 = alloca %struct.aclKeyResultCache, align 8
  %17 = alloca ptr, align 8
  %18 = alloca i32, align 4
  store ptr %0, ptr %7, align 8, !tbaa !32
  store ptr %1, ptr %8, align 8, !tbaa !108
  store ptr %2, ptr %9, align 8, !tbaa !175
  store i32 %3, ptr %10, align 4, !tbaa !17
  store i32 %4, ptr %11, align 4, !tbaa !17
  call void @llvm.lifetime.start.p0(i64 16, ptr %12) #14
  call void @llvm.lifetime.start.p0(i64 8, ptr %13) #14
  call void @llvm.lifetime.start.p0(i64 4, ptr %14) #14
  %19 = load ptr, ptr %7, align 8, !tbaa !32
  %20 = icmp eq ptr %19, null
  br i1 %20, label %21, label %22

21:                                               ; preds = %5
  store i32 1, ptr %6, align 4
  store i32 1, ptr %15, align 4
  br label %52

22:                                               ; preds = %5
  call void @llvm.lifetime.start.p0(i64 72, ptr %16) #14
  call void @initACLKeyResultCache(ptr noundef %16)
  %23 = load ptr, ptr %7, align 8, !tbaa !32
  %24 = getelementptr inbounds nuw %struct.user, ptr %23, i32 0, i32 3
  %25 = load ptr, ptr %24, align 8, !tbaa !81
  call void @listRewind(ptr noundef %25, ptr noundef %12)
  br label %26

26:                                               ; preds = %49, %22
  %27 = call ptr @listNext(ptr noundef %12)
  store ptr %27, ptr %13, align 8, !tbaa !94
  %28 = icmp ne ptr %27, null
  br i1 %28, label %29, label %50

29:                                               ; preds = %26
  call void @llvm.lifetime.start.p0(i64 8, ptr %17) #14
  %30 = load ptr, ptr %13, align 8, !tbaa !94
  %31 = getelementptr inbounds nuw %struct.listNode, ptr %30, i32 0, i32 2
  %32 = load ptr, ptr %31, align 8, !tbaa !86
  store ptr %32, ptr %17, align 8, !tbaa !32
  call void @llvm.lifetime.start.p0(i64 4, ptr %18) #14
  %33 = load ptr, ptr %17, align 8, !tbaa !32
  %34 = load ptr, ptr %8, align 8, !tbaa !108
  %35 = load ptr, ptr %9, align 8, !tbaa !175
  %36 = load i32, ptr %10, align 4, !tbaa !17
  %37 = call i32 @ACLSelectorCheckCmd(ptr noundef %33, ptr noundef %34, ptr noundef %35, i32 noundef %36, ptr noundef %14, ptr noundef %16)
  store i32 %37, ptr %18, align 4, !tbaa !17
  %38 = load i32, ptr %18, align 4, !tbaa !17
  %39 = icmp eq i32 %38, 0
  br i1 %39, label %40, label %46

40:                                               ; preds = %29
  %41 = load ptr, ptr %17, align 8, !tbaa !32
  %42 = load i32, ptr %11, align 4, !tbaa !17
  %43 = call i32 @ACLSelectorHasUnrestrictedKeyAccess(ptr noundef %41, i32 noundef %42)
  %44 = icmp ne i32 %43, 0
  br i1 %44, label %45, label %46

45:                                               ; preds = %40
  call void @cleanupACLKeyResultCache(ptr noundef %16)
  store i32 1, ptr %6, align 4
  store i32 1, ptr %15, align 4
  br label %47

46:                                               ; preds = %40, %29
  store i32 0, ptr %15, align 4
  br label %47

47:                                               ; preds = %46, %45
  call void @llvm.lifetime.end.p0(i64 4, ptr %18) #14
  call void @llvm.lifetime.end.p0(i64 8, ptr %17) #14
  %48 = load i32, ptr %15, align 4
  switch i32 %48, label %51 [
    i32 0, label %49
  ]

49:                                               ; preds = %47
  br label %26, !llvm.loop !181

50:                                               ; preds = %26
  call void @cleanupACLKeyResultCache(ptr noundef %16)
  store i32 0, ptr %6, align 4
  store i32 1, ptr %15, align 4
  br label %51

51:                                               ; preds = %50, %47
  call void @llvm.lifetime.end.p0(i64 72, ptr %16) #14
  br label %52

52:                                               ; preds = %51, %21
  call void @llvm.lifetime.end.p0(i64 4, ptr %14) #14
  call void @llvm.lifetime.end.p0(i64 8, ptr %13) #14
  call void @llvm.lifetime.end.p0(i64 16, ptr %12) #14
  %53 = load i32, ptr %6, align 4
  ret i32 %53
}