; Function Attrs: nounwind uwtable
define dso_local range(i32 0, 2) i32 @ACLUserCheckCmdWithUnrestrictedKeyAccess(ptr noundef readonly captures(address_is_null) %0, ptr noundef %1, ptr noundef %2, i32 noundef %3, i32 noundef %4) local_unnamed_addr #0 {
  %6 = alloca %struct.listIter, align 8
  %7 = alloca %struct.listIter, align 8
  %8 = alloca i32, align 4
  %9 = alloca %struct.aclKeyResultCache, align 8
  call void @llvm.lifetime.start.p0(i64 16, ptr nonnull %7) #25
  call void @llvm.lifetime.start.p0(i64 4, ptr nonnull %8) #25
  %10 = icmp eq ptr %0, null
  br i1 %10, label %50, label %11

11:                                               ; preds = %5
  call void @llvm.lifetime.start.p0(i64 72, ptr nonnull %9) #25
  store i32 0, ptr %9, align 8, !tbaa !171
  %12 = getelementptr inbounds nuw i8, ptr %0, i64 24
  %13 = load ptr, ptr %12, align 8, !tbaa !79
  call void @listRewind(ptr noundef %13, ptr noundef nonnull %7) #25
  %14 = call ptr @listNext(ptr noundef nonnull %7) #25
  %.not23 = icmp eq ptr %14, null
  br i1 %.not23, label %cleanupACLKeyResultCache.exit, label %.lr.ph

.lr.ph:                                           ; preds = %11
  %15 = lshr i32 %4, 4
  %.lobit.i = and i32 %15, 1
  %16 = lshr i32 %4, 5
  %17 = and i32 %16, 2
  %18 = and i32 %4, 160
  %19 = icmp eq i32 %18, 0
  %.320.v.i = select i1 %19, i32 %17, i32 2
  %.320.i = or disjoint i32 %.320.v.i, %.lobit.i
  br label %20

20:                                               ; preds = %.lr.ph, %46
  %21 = phi ptr [ %14, %.lr.ph ], [ %47, %46 ]
  %22 = getelementptr inbounds nuw i8, ptr %21, i64 16
  %23 = load ptr, ptr %22, align 8, !tbaa !85
  %24 = call fastcc i32 @ACLSelectorCheckCmd(ptr noundef %23, ptr noundef %1, ptr noundef %2, i32 noundef %3, ptr noundef %8, ptr noundef %9)
  %25 = icmp eq i32 %24, 0
  br i1 %25, label %26, label %46

26:                                               ; preds = %20
  %27 = load i32, ptr %23, align 8, !tbaa !61
  %28 = and i32 %27, 2
  %.not.i = icmp eq i32 %28, 0
  br i1 %.not.i, label %29, label %.critedge

29:                                               ; preds = %26
  call void @llvm.lifetime.start.p0(i64 16, ptr nonnull %6) #25
  %30 = getelementptr inbounds nuw i8, ptr %23, i64 144
  %31 = load ptr, ptr %30, align 8, !tbaa !64
  call void @listRewind(ptr noundef %31, ptr noundef nonnull %6) #25
  %32 = call ptr @listNext(ptr noundef nonnull %6) #25
  %.not2630.i = icmp eq ptr %32, null
  br i1 %.not2630.i, label %ACLSelectorHasUnrestrictedKeyAccess.exit.thread20, label %.lr.ph.i

.lr.ph.i:                                         ; preds = %29, %.tail.thread.i
  %33 = phi ptr [ %44, %.tail.thread.i ], [ %32, %29 ]
  %34 = getelementptr inbounds nuw i8, ptr %33, i64 16
  %35 = load ptr, ptr %34, align 8, !tbaa !85
  %36 = load i32, ptr %35, align 8, !tbaa !33
  %37 = and i32 %36, %.320.i
  %.not27.i = icmp eq i32 %37, %.320.i
  br i1 %.not27.i, label %sub_0.i, label %.tail.thread.i, !llvm.loop !176

sub_0.i:                                          ; preds = %.lr.ph.i
  %38 = getelementptr inbounds nuw i8, ptr %35, i64 8
  %39 = load ptr, ptr %38, align 8, !tbaa !30
  %40 = load i8, ptr %39, align 1
  %.not32.i = icmp eq i8 %40, 42
  br i1 %.not32.i, label %.tail.i, label %.tail.thread.i

.tail.i:                                          ; preds = %sub_0.i
  %41 = getelementptr inbounds nuw i8, ptr %39, i64 1
  %42 = load i8, ptr %41, align 1
  %43 = icmp eq i8 %42, 0
  br i1 %43, label %ACLSelectorHasUnrestrictedKeyAccess.exit, label %.tail.thread.i

.tail.thread.i:                                   ; preds = %.tail.i, %sub_0.i, %.lr.ph.i
  %44 = call ptr @listNext(ptr noundef nonnull %6) #25
  %.not26.i = icmp eq ptr %44, null
  br i1 %.not26.i, label %ACLSelectorHasUnrestrictedKeyAccess.exit.thread20, label %.lr.ph.i

ACLSelectorHasUnrestrictedKeyAccess.exit.thread20: ; preds = %.tail.thread.i, %29
  call void @llvm.lifetime.end.p0(i64 16, ptr nonnull %6) #25
  br label %46

ACLSelectorHasUnrestrictedKeyAccess.exit:         ; preds = %.tail.i
  call void @llvm.lifetime.end.p0(i64 16, ptr nonnull %6) #25
  br label %.critedge

.critedge:                                        ; preds = %26, %ACLSelectorHasUnrestrictedKeyAccess.exit
  %45 = load i32, ptr %9, align 8, !tbaa !171
  %.not.i15 = icmp eq i32 %45, 0
  br i1 %.not.i15, label %cleanupACLKeyResultCache.exit, label %cleanupACLKeyResultCache.exit.sink.split

46:                                               ; preds = %ACLSelectorHasUnrestrictedKeyAccess.exit.thread20, %20
  %47 = call ptr @listNext(ptr noundef nonnull %7) #25
  %.not = icmp eq ptr %47, null
  br i1 %.not, label %._crit_edge, label %20, !llvm.loop !177

._crit_edge:                                      ; preds = %46
  %.pre = load i32, ptr %9, align 8, !tbaa !171
  %48 = icmp eq i32 %.pre, 0
  br i1 %48, label %cleanupACLKeyResultCache.exit, label %cleanupACLKeyResultCache.exit.sink.split

cleanupACLKeyResultCache.exit.sink.split:         ; preds = %._crit_edge, %.critedge
  %.3.ph = phi i32 [ 1, %.critedge ], [ 0, %._crit_edge ]
  %49 = getelementptr inbounds nuw i8, ptr %9, i64 8
  call void @getKeysFreeResult(ptr noundef nonnull %49) #25
  br label %cleanupACLKeyResultCache.exit

cleanupACLKeyResultCache.exit:                    ; preds = %cleanupACLKeyResultCache.exit.sink.split, %11, %._crit_edge, %.critedge
  %.3 = phi i32 [ 1, %.critedge ], [ 0, %._crit_edge ], [ 0, %11 ], [ %.3.ph, %cleanupACLKeyResultCache.exit.sink.split ]
  call void @llvm.lifetime.end.p0(i64 72, ptr nonnull %9) #25
  br label %50

50:                                               ; preds = %5, %cleanupACLKeyResultCache.exit
  %.0 = phi i32 [ %.3, %cleanupACLKeyResultCache.exit ], [ 1, %5 ]
  call void @llvm.lifetime.end.p0(i64 4, ptr nonnull %8) #25
  call void @llvm.lifetime.end.p0(i64 16, ptr nonnull %7) #25
  ret i32 %.0
}